target datalayout = "e-m:e-p270:32:32-p271:32:32-p272:64:64-i64:64-i128:128-f80:128-n8:16:32:64-S128"
target triple = "x86_64-pc-linux-gnu"

%struct.sha512_ctx = type { [8 x i64], [2 x i64], i64, [256 x i8] }

@fillbuf = internal constant <{ i8, [127 x i8] }> <{ i8 -128, [127 x i8] zeroinitializer }>, align 16

; Function Attrs: nounwind uwtable
define internal ptr @sha512_finish_ctx(ptr noundef %0, ptr noundef %1) #0 {
  %3 = alloca ptr, align 8
  %4 = alloca ptr, align 8
  %5 = alloca i64, align 8
  %6 = alloca i64, align 8
  %7 = alloca i32, align 4
  store ptr %0, ptr %3, align 8
  store ptr %1, ptr %4, align 8
  %8 = load ptr, ptr %3, align 8
  %9 = getelementptr inbounds %struct.sha512_ctx, ptr %8, i32 0, i32 2
  %10 = load i64, ptr %9, align 8
  store i64 %10, ptr %5, align 8
  %11 = load i64, ptr %5, align 8
  %12 = load ptr, ptr %3, align 8
  %13 = getelementptr inbounds %struct.sha512_ctx, ptr %12, i32 0, i32 1
  %14 = getelementptr inbounds [2 x i64], ptr %13, i64 0, i64 0
  %15 = load i64, ptr %14, align 8
  %16 = add i64 %15, %11
  store i64 %16, ptr %14, align 8
  %17 = load ptr, ptr %3, align 8
  %18 = getelementptr inbounds %struct.sha512_ctx, ptr %17, i32 0, i32 1
  %19 = getelementptr inbounds [2 x i64], ptr %18, i64 0, i64 0
  %20 = load i64, ptr %19, align 8
  %21 = load i64, ptr %5, align 8
  %22 = icmp ult i64 %20, %21
  br i1 %22, label %23, label %29

23:                                               ; preds = %2
  %24 = load ptr, ptr %3, align 8
  %25 = getelementptr inbounds %struct.sha512_ctx, ptr %24, i32 0, i32 1
  %26 = getelementptr inbounds [2 x i64], ptr %25, i64 0, i64 1
  %27 = load i64, ptr %26, align 8
  %28 = add i64 %27, 1
  store i64 %28, ptr %26, align 8
  br label %29

29:                                               ; preds = %23, %2
  %30 = load i64, ptr %5, align 8
  %31 = icmp uge i64 %30, 112
  br i1 %31, label %32, label %35

32:                                               ; preds = %29
  %33 = load i64, ptr %5, align 8
  %34 = sub i64 240, %33
  br label %38

35:                                               ; preds = %29
  %36 = load i64, ptr %5, align 8
  %37 = sub i64 112, %36
  br label %38

38:                                               ; preds = %35, %32
  %39 = phi i64 [ %34, %32 ], [ %37, %35 ]
  store i64 %39, ptr %6, align 8
  %40 = load ptr, ptr %3, align 8
  %41 = getelementptr inbounds %struct.sha512_ctx, ptr %40, i32 0, i32 3
  %42 = load i64, ptr %5, align 8
  %43 = getelementptr inbounds [256 x i8], ptr %41, i64 0, i64 %42
  %44 = load i64, ptr %6, align 8
  call void @llvm.memcpy.p0.p0.i64(ptr align 1 %43, ptr align 16 @fillbuf, i64 %44, i1 false)
  %45 = load ptr, ptr %3, align 8
  %46 = getelementptr inbounds %struct.sha512_ctx, ptr %45, i32 0, i32 1
  %47 = getelementptr inbounds [2 x i64], ptr %46, i64 0, i64 0
  %48 = load i64, ptr %47, align 8
  %49 = shl i64 %48, 3
  %50 = shl i64 %49, 56
  %51 = load ptr, ptr %3, align 8
  %52 = getelementptr inbounds %struct.sha512_ctx, ptr %51, i32 0, i32 1
  %53 = getelementptr inbounds [2 x i64], ptr %52, i64 0, i64 0
  %54 = load i64, ptr %53, align 8
  %55 = shl i64 %54, 3
  %56 = and i64 %55, 65280
  %57 = shl i64 %56, 40
  %58 = or i64 %50, %57
  %59 = load ptr, ptr %3, align 8
  %60 = getelementptr inbounds %struct.sha512_ctx, ptr %59, i32 0, i32 1
  %61 = getelementptr inbounds [2 x i64], ptr %60, i64 0, i64 0
  %62 = load i64, ptr %61, align 8
  %63 = shl i64 %62, 3
  %64 = and i64 %63, 16711680
  %65 = shl i64 %64, 24
  %66 = or i64 %58, %65
  %67 = load ptr, ptr %3, align 8
  %68 = getelementptr inbounds %struct.sha512_ctx, ptr %67, i32 0, i32 1
  %69 = getelementptr inbounds [2 x i64], ptr %68, i64 0, i64 0
  %70 = load i64, ptr %69, align 8
  %71 = shl i64 %70, 3
  %72 = and i64 %71, 4278190080
  %73 = shl i64 %72, 8
  %74 = or i64 %66, %73
  %75 = load ptr, ptr %3, align 8
  %76 = getelementptr inbounds %struct.sha512_ctx, ptr %75, i32 0, i32 1
  %77 = getelementptr inbounds [2 x i64], ptr %76, i64 0, i64 0
  %78 = load i64, ptr %77, align 8
  %79 = shl i64 %78, 3
  %80 = lshr i64 %79, 8
  %81 = and i64 %80, 4278190080
  %82 = or i64 %74, %81
  %83 = load ptr, ptr %3, align 8
  %84 = getelementptr inbounds %struct.sha512_ctx, ptr %83, i32 0, i32 1
  %85 = getelementptr inbounds [2 x i64], ptr %84, i64 0, i64 0
  %86 = load i64, ptr %85, align 8
  %87 = shl i64 %86, 3
  %88 = lshr i64 %87, 24
  %89 = and i64 %88, 16711680
  %90 = or i64 %82, %89
  %91 = load ptr, ptr %3, align 8
  %92 = getelementptr inbounds %struct.sha512_ctx, ptr %91, i32 0, i32 1
  %93 = getelementptr inbounds [2 x i64], ptr %92, i64 0, i64 0
  %94 = load i64, ptr %93, align 8
  %95 = shl i64 %94, 3
  %96 = lshr i64 %95, 40
  %97 = and i64 %96, 65280
  %98 = or i64 %90, %97
  %99 = load ptr, ptr %3, align 8
  %100 = getelementptr inbounds %struct.sha512_ctx, ptr %99, i32 0, i32 1
  %101 = getelementptr inbounds [2 x i64], ptr %100, i64 0, i64 0
  %102 = load i64, ptr %101, align 8
  %103 = shl i64 %102, 3
  %104 = lshr i64 %103, 56
  %105 = or i64 %98, %104
  %106 = load ptr, ptr %3, align 8
  %107 = getelementptr inbounds %struct.sha512_ctx, ptr %106, i32 0, i32 3
  %108 = load i64, ptr %5, align 8
  %109 = load i64, ptr %6, align 8
  %110 = add i64 %108, %109
  %111 = add i64 %110, 8
  %112 = getelementptr inbounds [256 x i8], ptr %107, i64 0, i64 %111
  store i64 %105, ptr %112, align 1
  %113 = load ptr, ptr %3, align 8
  %114 = getelementptr inbounds %struct.sha512_ctx, ptr %113, i32 0, i32 1
  %115 = getelementptr inbounds [2 x i64], ptr %114, i64 0, i64 1
  %116 = load i64, ptr %115, align 8
  %117 = shl i64 %116, 3
  %118 = load ptr, ptr %3, align 8
  %119 = getelementptr inbounds %struct.sha512_ctx, ptr %118, i32 0, i32 1
  %120 = getelementptr inbounds [2 x i64], ptr %119, i64 0, i64 0
  %121 = load i64, ptr %120, align 8
  %122 = lshr i64 %121, 61
  %123 = or i64 %117, %122
  %124 = shl i64 %123, 56
  %125 = load ptr, ptr %3, align 8
  %126 = getelementptr inbounds %struct.sha512_ctx, ptr %125, i32 0, i32 1
  %127 = getelementptr inbounds [2 x i64], ptr %126, i64 0, i64 1
  %128 = load i64, ptr %127, align 8
  %129 = shl i64 %128, 3
  %130 = load ptr, ptr %3, align 8
  %131 = getelementptr inbounds %struct.sha512_ctx, ptr %130, i32 0, i32 1
  %132 = getelementptr inbounds [2 x i64], ptr %131, i64 0, i64 0
  %133 = load i64, ptr %132, align 8
  %134 = lshr i64 %133, 61
  %135 = or i64 %129, %134
  %136 = and i64 %135, 65280
  %137 = shl i64 %136, 40
  %138 = or i64 %124, %137
  %139 = load ptr, ptr %3, align 8
  %140 = getelementptr inbounds %struct.sha512_ctx, ptr %139, i32 0, i32 1
  %141 = getelementptr inbounds [2 x i64], ptr %140, i64 0, i64 1
  %142 = load i64, ptr %141, align 8
  %143 = shl i64 %142, 3
  %144 = load ptr, ptr %3, align 8
  %145 = getelementptr inbounds %struct.sha512_ctx, ptr %144, i32 0, i32 1
  %146 = getelementptr inbounds [2 x i64], ptr %145, i64 0, i64 0
  %147 = load i64, ptr %146, align 8
  %148 = lshr i64 %147, 61
  %149 = or i64 %143, %148
  %150 = and i64 %149, 16711680
  %151 = shl i64 %150, 24
  %152 = or i64 %138, %151
  %153 = load ptr, ptr %3, align 8
  %154 = getelementptr inbounds %struct.sha512_ctx, ptr %153, i32 0, i32 1
  %155 = getelementptr inbounds [2 x i64], ptr %154, i64 0, i64 1
  %156 = load i64, ptr %155, align 8
  %157 = shl i64 %156, 3
  %158 = load ptr, ptr %3, align 8
  %159 = getelementptr inbounds %struct.sha512_ctx, ptr %158, i32 0, i32 1
  %160 = getelementptr inbounds [2 x i64], ptr %159, i64 0, i64 0
  %161 = load i64, ptr %160, align 8
  %162 = lshr i64 %161, 61
  %163 = or i64 %157, %162
  %164 = and i64 %163, 4278190080
  %165 = shl i64 %164, 8
  %166 = or i64 %152, %165
  %167 = load ptr, ptr %3, align 8
  %168 = getelementptr inbounds %struct.sha512_ctx, ptr %167, i32 0, i32 1
  %169 = getelementptr inbounds [2 x i64], ptr %168, i64 0, i64 1
  %170 = load i64, ptr %169, align 8
  %171 = shl i64 %170, 3
  %172 = load ptr, ptr %3, align 8
  %173 = getelementptr inbounds %struct.sha512_ctx, ptr %172, i32 0, i32 1
  %174 = getelementptr inbounds [2 x i64], ptr %173, i64 0, i64 0
  %175 = load i64, ptr %174, align 8
  %176 = lshr i64 %175, 61
  %177 = or i64 %171, %176
  %178 = lshr i64 %177, 8
  %179 = and i64 %178, 4278190080
  %180 = or i64 %166, %179
  %181 = load ptr, ptr %3, align 8
  %182 = getelementptr inbounds %struct.sha512_ctx, ptr %181, i32 0, i32 1
  %183 = getelementptr inbounds [2 x i64], ptr %182, i64 0, i64 1
  %184 = load i64, ptr %183, align 8
  %185 = shl i64 %184, 3
  %186 = load ptr, ptr %3, align 8
  %187 = getelementptr inbounds %struct.sha512_ctx, ptr %186, i32 0, i32 1
  %188 = getelementptr inbounds [2 x i64], ptr %187, i64 0, i64 0
  %189 = load i64, ptr %188, align 8
  %190 = lshr i64 %189, 61
  %191 = or i64 %185, %190
  %192 = lshr i64 %191, 24
  %193 = and i64 %192, 16711680
  %194 = or i64 %180, %193
  %195 = load ptr, ptr %3, align 8
  %196 = getelementptr inbounds %struct.sha512_ctx, ptr %195, i32 0, i32 1
  %197 = getelementptr inbounds [2 x i64], ptr %196, i64 0, i64 1
  %198 = load i64, ptr %197, align 8
  %199 = shl i64 %198, 3
  %200 = load ptr, ptr %3, align 8
  %201 = getelementptr inbounds %struct.sha512_ctx, ptr %200, i32 0, i32 1
  %202 = getelementptr inbounds [2 x i64], ptr %201, i64 0, i64 0
  %203 = load i64, ptr %202, align 8
  %204 = lshr i64 %203, 61
  %205 = or i64 %199, %204
  %206 = lshr i64 %205, 40
  %207 = and i64 %206, 65280
  %208 = or i64 %194, %207
  %209 = load ptr, ptr %3, align 8
  %210 = getelementptr inbounds %struct.sha512_ctx, ptr %209, i32 0, i32 1
  %211 = getelementptr inbounds [2 x i64], ptr %210, i64 0, i64 1
  %212 = load i64, ptr %211, align 8
  %213 = shl i64 %212, 3
  %214 = load ptr, ptr %3, align 8
  %215 = getelementptr inbounds %struct.sha512_ctx, ptr %214, i32 0, i32 1
  %216 = getelementptr inbounds [2 x i64], ptr %215, i64 0, i64 0
  %217 = load i64, ptr %216, align 8
  %218 = lshr i64 %217, 61
  %219 = or i64 %213, %218
  %220 = lshr i64 %219, 56
  %221 = or i64 %208, %220
  %222 = load ptr, ptr %3, align 8
  %223 = getelementptr inbounds %struct.sha512_ctx, ptr %222, i32 0, i32 3
  %224 = load i64, ptr %5, align 8
  %225 = load i64, ptr %6, align 8
  %226 = add i64 %224, %225
  %227 = getelementptr inbounds [256 x i8], ptr %223, i64 0, i64 %226
  store i64 %221, ptr %227, align 1
  %228 = load ptr, ptr %3, align 8
  %229 = getelementptr inbounds %struct.sha512_ctx, ptr %228, i32 0, i32 3
  %230 = getelementptr inbounds [256 x i8], ptr %229, i64 0, i64 0
  %231 = load i64, ptr %5, align 8
  %232 = load i64, ptr %6, align 8
  %233 = add i64 %231, %232
  %234 = add i64 %233, 16
  %235 = load ptr, ptr %3, align 8
  call void @sha512_process_block(ptr noundef %230, i64 noundef %234, ptr noundef %235)
  store i32 0, ptr %7, align 4
  br label %236

236:                                              ; preds = %313, %38
  %237 = load i32, ptr %7, align 4
  %238 = icmp ult i32 %237, 8
  br i1 %238, label %239, label %316

239:                                              ; preds = %236
  %240 = load ptr, ptr %3, align 8
  %241 = getelementptr inbounds %struct.sha512_ctx, ptr %240, i32 0, i32 0
  %242 = load i32, ptr %7, align 4
  %243 = zext i32 %242 to i64
  %244 = getelementptr inbounds [8 x i64], ptr %241, i64 0, i64 %243
  %245 = load i64, ptr %244, align 8
  %246 = shl i64 %245, 56
  %247 = load ptr, ptr %3, align 8
  %248 = getelementptr inbounds %struct.sha512_ctx, ptr %247, i32 0, i32 0
  %249 = load i32, ptr %7, align 4
  %250 = zext i32 %249 to i64
  %251 = getelementptr inbounds [8 x i64], ptr %248, i64 0, i64 %250
  %252 = load i64, ptr %251, align 8
  %253 = and i64 %252, 65280
  %254 = shl i64 %253, 40
  %255 = or i64 %246, %254
  %256 = load ptr, ptr %3, align 8
  %257 = getelementptr inbounds %struct.sha512_ctx, ptr %256, i32 0, i32 0
  %258 = load i32, ptr %7, align 4
  %259 = zext i32 %258 to i64
  %260 = getelementptr inbounds [8 x i64], ptr %257, i64 0, i64 %259
  %261 = load i64, ptr %260, align 8
  %262 = and i64 %261, 16711680
  %263 = shl i64 %262, 24
  %264 = or i64 %255, %263
  %265 = load ptr, ptr %3, align 8
  %266 = getelementptr inbounds %struct.sha512_ctx, ptr %265, i32 0, i32 0
  %267 = load i32, ptr %7, align 4
  %268 = zext i32 %267 to i64
  %269 = getelementptr inbounds [8 x i64], ptr %266, i64 0, i64 %268
  %270 = load i64, ptr %269, align 8
  %271 = and i64 %270, 4278190080
  %272 = shl i64 %271, 8
  %273 = or i64 %264, %272
  %274 = load ptr, ptr %3, align 8
  %275 = getelementptr inbounds %struct.sha512_ctx, ptr %274, i32 0, i32 0
  %276 = load i32, ptr %7, align 4
  %277 = zext i32 %276 to i64
  %278 = getelementptr inbounds [8 x i64], ptr %275, i64 0, i64 %277
  %279 = load i64, ptr %278, align 8
  %280 = lshr i64 %279, 8
  %281 = and i64 %280, 4278190080
  %282 = or i64 %273, %281
  %283 = load ptr, ptr %3, align 8
  %284 = getelementptr inbounds %struct.sha512_ctx, ptr %283, i32 0, i32 0
  %285 = load i32, ptr %7, align 4
  %286 = zext i32 %285 to i64
  %287 = getelementptr inbounds [8 x i64], ptr %284, i64 0, i64 %286
  %288 = load i64, ptr %287, align 8
  %289 = lshr i64 %288, 24
  %290 = and i64 %289, 16711680
  %291 = or i64 %282, %290
  %292 = load ptr, ptr %3, align 8
  %293 = getelementptr inbounds %struct.sha512_ctx, ptr %292, i32 0, i32 0
  %294 = load i32, ptr %7, align 4
  %295 = zext i32 %294 to i64
  %296 = getelementptr inbounds [8 x i64], ptr %293, i64 0, i64 %295
  %297 = load i64, ptr %296, align 8
  %298 = lshr i64 %297, 40
  %299 = and i64 %298, 65280
  %300 = or i64 %291, %299
  %301 = load ptr, ptr %3, align 8
  %302 = getelementptr inbounds %struct.sha512_ctx, ptr %301, i32 0, i32 0
  %303 = load i32, ptr %7, align 4
  %304 = zext i32 %303 to i64
  %305 = getelementptr inbounds [8 x i64], ptr %302, i64 0, i64 %304
  %306 = load i64, ptr %305, align 8
  %307 = lshr i64 %306, 56
  %308 = or i64 %300, %307
  %309 = load ptr, ptr %4, align 8
  %310 = load i32, ptr %7, align 4
  %311 = zext i32 %310 to i64
  %312 = getelementptr inbounds i64, ptr %309, i64 %311
  store i64 %308, ptr %312, align 8
  br label %313

313:                                              ; preds = %239
  %314 = load i32, ptr %7, align 4
  %315 = add i32 %314, 1
  store i32 %315, ptr %7, align 4
  br label %236

316:                                              ; preds = %236
  %317 = load ptr, ptr %4, align 8
  ret ptr %317
}