; Function Attrs: nofree norecurse nosync nounwind memory(read, argmem: readwrite, inaccessiblemem: none) uwtable
define internal fastcc noundef ptr @sha512_finish_ctx(ptr nocapture noundef %0, ptr noundef returned writeonly %1) unnamed_addr #6 {
  %3 = getelementptr inbounds i8, ptr %0, i64 80
  %4 = load i64, ptr %3, align 8
  %5 = getelementptr inbounds i8, ptr %0, i64 64
  %6 = load i64, ptr %5, align 8
  %7 = add i64 %6, %4
  store i64 %7, ptr %5, align 8
  %8 = icmp ult i64 %7, %4
  br i1 %8, label %9, label %13

9:                                                ; preds = %2
  %10 = getelementptr inbounds i8, ptr %0, i64 72
  %11 = load i64, ptr %10, align 8
  %12 = add i64 %11, 1
  store i64 %12, ptr %10, align 8
  br label %13

13:                                               ; preds = %9, %2
  %.inv = icmp ult i64 %4, 112
  %.v = select i1 %.inv, i64 112, i64 240
  %14 = sub i64 %.v, %4
  %15 = getelementptr inbounds i8, ptr %0, i64 88
  %16 = getelementptr inbounds [256 x i8], ptr %15, i64 0, i64 %4
  tail call void @llvm.memcpy.p0.p0.i64(ptr nonnull align 1 %16, ptr nonnull align 16 @fillbuf, i64 %14, i1 false)
  %17 = load i64, ptr %5, align 8
  %18 = shl i64 %17, 3
  %19 = getelementptr inbounds i8, ptr %0, i64 72
  %20 = load i64, ptr %19, align 8
  %21 = tail call i64 @llvm.fshl.i64(i64 %20, i64 %17, i64 3)
  %22 = getelementptr inbounds [256 x i8], ptr %15, i64 0, i64 %.v
  %23 = insertelement <2 x i64> poison, i64 %21, i64 0
  %24 = insertelement <2 x i64> %23, i64 %17, i64 1
  %25 = shl <2 x i64> %24, <i64 56, i64 59>
  %26 = shl <2 x i64> %24, <i64 40, i64 43>
  %27 = and <2 x i64> %26, <i64 71776119061217280, i64 71776119061217280>
  %28 = or disjoint <2 x i64> %27, %25
  %29 = shl <2 x i64> %24, <i64 24, i64 27>
  %30 = and <2 x i64> %29, <i64 280375465082880, i64 280375465082880>
  %31 = or disjoint <2 x i64> %28, %30
  %32 = shl <2 x i64> %24, <i64 8, i64 11>
  %33 = and <2 x i64> %32, <i64 1095216660480, i64 1095216660480>
  %34 = or disjoint <2 x i64> %31, %33
  %35 = insertelement <2 x i64> %24, i64 %18, i64 1
  %36 = lshr <2 x i64> %35, <i64 8, i64 8>
  %37 = and <2 x i64> %36, <i64 4278190080, i64 4278190080>
  %38 = or disjoint <2 x i64> %34, %37
  %39 = lshr <2 x i64> %35, <i64 24, i64 24>
  %40 = and <2 x i64> %39, <i64 16711680, i64 16711680>
  %41 = or disjoint <2 x i64> %38, %40
  %42 = lshr <2 x i64> %35, <i64 40, i64 40>
  %43 = and <2 x i64> %42, <i64 65280, i64 65280>
  %44 = or disjoint <2 x i64> %41, %43
  %45 = lshr <2 x i64> %35, <i64 56, i64 56>
  %46 = or <2 x i64> %44, %45
  store <2 x i64> %46, ptr %22, align 1
  %47 = add nuw nsw i64 %.v, 16
  tail call fastcc void @sha512_process_block(ptr noundef nonnull %15, i64 noundef %47, ptr noundef nonnull %0)
  br label %48

48:                                               ; preds = %13, %48
  %indvars.iv = phi i64 [ 0, %13 ], [ %indvars.iv.next, %48 ]
  %49 = getelementptr inbounds [8 x i64], ptr %0, i64 0, i64 %indvars.iv
  %50 = load i64, ptr %49, align 8
  %51 = tail call i64 @llvm.bswap.i64(i64 %50)
  %52 = getelementptr inbounds i64, ptr %1, i64 %indvars.iv
  store i64 %51, ptr %52, align 8
  %indvars.iv.next = add nuw nsw i64 %indvars.iv, 1
  %exitcond.not = icmp eq i64 %indvars.iv.next, 8
  br i1 %exitcond.not, label %53, label %48

53:                                               ; preds = %48
  ret ptr %1
}